target datalayout = "e-m:e-p270:32:32-p271:32:32-p272:64:64-i64:64-i128:128-f80:128-n8:16:32:64-S128"
target triple = "x86_64-pc-linux-gnu"

%struct.mac_lte_nr_stat_t = type { %struct.mac_lte_common_stats, [65535 x i8], [65535 x i8], i16, i16, ptr }
%struct.mac_lte_common_stats = type { i32, i32, i32, i32, i32, i32, i32, i32, i32, i16, i16 }

; Function Attrs: alwaysinline nounwind
define internal ptr @memset.inline(ptr %0, i32 %1, i64 %2) #9 {
  %4 = alloca ptr, align 8
  %5 = alloca i32, align 4
  %6 = alloca i64, align 8
  store ptr %0, ptr %4, align 8
  store i32 %1, ptr %5, align 4
  store i64 %2, ptr %6, align 8
  %7 = load ptr, ptr %4, align 8
  %8 = load i32, ptr %5, align 4
  %9 = load i64, ptr %6, align 8
  %10 = load ptr, ptr %4, align 8
  %11 = call i64 @llvm.objectsize.i64.p0(ptr %10, i1 false, i1 true, i1 true)
  %12 = call ptr @__memset_chk(ptr noundef %7, i32 noundef %8, i64 noundef %9, i64 noundef %11) #13
  ret ptr %12
}

; Function Attrs: nounwind null_pointer_is_valid sspstrong uwtable
define internal void @mac_lte_stat_reset(ptr noundef %0) #7 {
  %2 = alloca ptr, align 8
  %3 = alloca ptr, align 8
  %4 = alloca ptr, align 8
  %5 = alloca i32, align 4
  store ptr %0, ptr %2, align 8
  call void @llvm.lifetime.start.p0(i64 8, ptr %3) #13
  %6 = load ptr, ptr %2, align 8
  store ptr %6, ptr %3, align 8
  call void @llvm.lifetime.start.p0(i64 8, ptr %4) #13
  %7 = load ptr, ptr %3, align 8
  %8 = getelementptr inbounds nuw %struct.mac_lte_nr_stat_t, ptr %7, i32 0, i32 5
  %9 = load ptr, ptr %8, align 8
  store ptr %9, ptr %4, align 8
  %10 = load ptr, ptr %3, align 8
  %11 = getelementptr inbounds nuw %struct.mac_lte_nr_stat_t, ptr %10, i32 0, i32 1
  %12 = getelementptr inbounds [65535 x i8], ptr %11, i64 0, i64 0
  %13 = call ptr @memset.inline(ptr noundef %12, i32 noundef 0, i64 noundef 65535) #13
  %14 = load ptr, ptr %3, align 8
  %15 = getelementptr inbounds nuw %struct.mac_lte_nr_stat_t, ptr %14, i32 0, i32 3
  store i16 0, ptr %15, align 2
  %16 = load ptr, ptr %3, align 8
  %17 = getelementptr inbounds nuw %struct.mac_lte_nr_stat_t, ptr %16, i32 0, i32 2
  %18 = getelementptr inbounds [65535 x i8], ptr %17, i64 0, i64 0
  %19 = call ptr @memset.inline(ptr noundef %18, i32 noundef 0, i64 noundef 65535) #13
  %20 = load ptr, ptr %3, align 8
  %21 = getelementptr inbounds nuw %struct.mac_lte_nr_stat_t, ptr %20, i32 0, i32 4
  store i16 0, ptr %21, align 8
  %22 = load ptr, ptr %3, align 8
  %23 = getelementptr inbounds nuw %struct.mac_lte_nr_stat_t, ptr %22, i32 0, i32 0
  %24 = call ptr @memset.inline(ptr noundef %23, i32 noundef 0, i64 noundef 40) #13
  %25 = load ptr, ptr %4, align 8
  %26 = icmp ne ptr %25, null
  br i1 %26, label %28, label %27

27:                                               ; preds = %1
  store i32 1, ptr %5, align 4
  br label %31

28:                                               ; preds = %1
  %29 = load ptr, ptr %3, align 8
  %30 = getelementptr inbounds nuw %struct.mac_lte_nr_stat_t, ptr %29, i32 0, i32 5
  store ptr null, ptr %30, align 8
  store i32 0, ptr %5, align 4
  br label %31

31:                                               ; preds = %28, %27
  call void @llvm.lifetime.end.p0(i64 8, ptr %4) #13
  call void @llvm.lifetime.end.p0(i64 8, ptr %3) #13
  %32 = load i32, ptr %5, align 4
  switch i32 %32, label %34 [
    i32 0, label %33
    i32 1, label %33
  ]

33:                                               ; preds = %31, %31
  ret void

34:                                               ; preds = %31
  unreachable
}