; Function Attrs: nofree nounwind null_pointer_is_valid sspstrong memory(argmem: readwrite) uwtable
define internal void @mac_lte_stat_reset(ptr noundef %0) #4 {
  %2 = getelementptr inbounds nuw i8, ptr %0, i64 131120
  %3 = load ptr, ptr %2, align 8
  %4 = getelementptr inbounds nuw i8, ptr %0, i64 40
  tail call void @llvm.memset.p0.i64(ptr noundef nonnull align 1 dereferenceable(65535) %4, i8 noundef 0, i64 noundef 65535, i1 noundef false) #14
  %5 = getelementptr inbounds nuw i8, ptr %0, i64 131110
  store i16 0, ptr %5, align 2
  %6 = getelementptr inbounds nuw i8, ptr %0, i64 65575
  tail call void @llvm.memset.p0.i64(ptr noundef nonnull align 1 dereferenceable(65535) %6, i8 noundef 0, i64 noundef 65535, i1 noundef false) #14
  %7 = getelementptr inbounds nuw i8, ptr %0, i64 131112
  store i16 0, ptr %7, align 8
  tail call void @llvm.memset.p0.i64(ptr noundef align 1 dereferenceable(40) %0, i8 noundef 0, i64 noundef 40, i1 noundef false) #14
  %.not = icmp eq ptr %3, null
  br i1 %.not, label %9, label %8

8:                                                ; preds = %1
  store ptr null, ptr %2, align 8
  br label %9

9:                                                ; preds = %1, %8
  ret void
}